target datalayout = "e-m:e-p270:32:32-p271:32:32-p272:64:64-i64:64-i128:128-f80:128-n8:16:32:64-S128"
target triple = "x86_64-pc-linux-gnu"

%struct.darktable_t = type { %struct.dt_codepath_t, i32, i32, ptr, ptr, ptr, ptr, ptr, ptr, ptr, ptr, ptr, ptr, ptr, ptr, ptr, ptr, ptr, ptr, ptr, ptr, ptr, ptr, ptr, ptr, ptr, ptr, ptr, ptr, ptr, [64 x %struct.dt_pthread_mutex_t], %struct.dt_pthread_mutex_t, %struct.dt_pthread_mutex_t, %struct.dt_pthread_mutex_t, %struct.dt_pthread_mutex_t, %struct.dt_pthread_mutex_t, ptr, ptr, ptr, ptr, ptr, ptr, ptr, ptr, ptr, ptr, ptr, ptr, ptr, %struct.dt_lua_state_t, ptr, double, ptr, i32, [47 x i32], i32, i32, ptr, ptr, %struct.dt_sys_resources_t, %struct.dt_backthumb_t, %struct.dt_gimp_t }
%struct.dt_codepath_t = type { i8, [3 x i8] }
%struct.dt_pthread_mutex_t = type { %union.pthread_mutex_t }
%union.pthread_mutex_t = type { %struct.__pthread_mutex_s }
%struct.__pthread_mutex_s = type { i32, i32, i32, i32, i32, i16, i16, %struct.__pthread_internal_list }
%struct.__pthread_internal_list = type { ptr, ptr }
%struct.dt_lua_state_t = type { i32 }
%struct.dt_sys_resources_t = type { i64, i64, ptr, ptr, i32 }
%struct.dt_backthumb_t = type { double, double, i32, i32, i32, i32 }
%struct.dt_gimp_t = type { i32, ptr, ptr, i32, i32 }
%struct.dt_iop_order_iccprofile_info_t = type { i32, [512 x i8], i32, [56 x i8], [4 x [4 x float]], [4 x [4 x float]], i32, [3 x ptr], [3 x ptr], [8 x i8], [3 x [3 x float]], [12 x i8], [3 x [3 x float]], i32, float, [36 x i8], [4 x [4 x float]], [4 x [4 x float]], [3 x [2 x float]], [2 x float], [32 x i8] }
%struct.dt_image_t = type { i32, i32, float, float, float, float, float, float, float, [64 x i8], [64 x i8], [128 x i8], [64 x i8], [64 x i8], [64 x i8], [64 x i8], i64, i32, %union.dt_image_correction_data_t, [64 x i8], [64 x i8], [64 x i8], [128 x i8], i32, [256 x i8], i32, i32, i32, i32, i32, i32, i32, i32, i32, i32, float, i32, i32, i32, i32, i32, i32, i64, i64, i64, i64, i32, [12 x i8], %struct.dt_iop_buffer_dsc_t, [9 x float], ptr, i32, i32, %struct.dt_image_raw_parameters_t, %struct.dt_image_geoloc_t, %struct._color_harmony_t, i16, [4 x i16], i32, i32, float, float, [4 x float], [4 x [3 x float]], [4 x float], ptr, ptr, i32, i32, [8 x i8] }
%union.dt_image_correction_data_t = type { %struct.anon.0 }
%struct.anon.0 = type { i32, float, [11 x float], [11 x float], [11 x float], [11 x float], [11 x float] }
%struct.dt_iop_buffer_dsc_t = type { i32, i32, i32, [6 x [6 x i8]], %struct.anon.3, [12 x i8], %struct.anon.4, [4 x float], i32, [12 x i8] }
%struct.anon.3 = type { i16, i16 }
%struct.anon.4 = type { i32, [12 x i8], [4 x float] }
%struct.dt_image_raw_parameters_t = type { i32 }
%struct.dt_image_geoloc_t = type { double, double, double }
%struct._color_harmony_t = type { i32, i32, i32 }
%struct.dt_dev_pixelpipe_t = type { %struct.dt_dev_pixelpipe_cache_t, i32, i64, ptr, i32, i32, float, i32, i32, [12 x i8], %struct.dt_iop_buffer_dsc_t, ptr, ptr, ptr, ptr, i32, i32, i32, i32, ptr, i64, i32, i32, float, float, float, i64, %struct.dt_pthread_mutex_t, %struct.dt_pthread_mutex_t, %struct.dt_pthread_mutex_t, i32, i32, i32, %struct.dt_dev_detail_mask_t, i32, i32, i32, i32, i32, i32, i32, i32, i32, i32, i32, i32, i32, i32, [8 x i8], %struct.dt_image_t, i32, ptr, i32, ptr, ptr, ptr, i32, ptr, i64, [8 x i8] }
%struct.dt_dev_pixelpipe_cache_t = type { i32, i64, i64, ptr, ptr, ptr, ptr, ptr, ptr, i64, i32, i64, i64, i32, i32, i32 }
%struct.dt_dev_detail_mask_t = type { %struct.dt_iop_roi_t, i64, ptr }
%struct.dt_iop_roi_t = type { i32, i32, i32, i32, float }

@darktable = external global %struct.darktable_t, align 8
@.str.3 = private unnamed_addr constant [1 x i8] zeroinitializer, align 1
@.str.4 = private unnamed_addr constant [87 x i8] c"[dt_ioppr_set_pipe_input_profile_info] profile `%s' in `%s' replaced by linear Rec2020\00", align 1

; Function Attrs: inlinehint nounwind uwtable
define internal void @transpose_3xSSE(ptr noundef %0, ptr noundef %1) #2 {
  %3 = alloca ptr, align 8
  %4 = alloca ptr, align 8
  %5 = alloca i64, align 8
  store ptr %0, ptr %3, align 8, !tbaa !22
  store ptr %1, ptr %4, align 8, !tbaa !22
  %6 = load ptr, ptr %3, align 8, !tbaa !22
  %7 = getelementptr inbounds [4 x float], ptr %6, i64 0
  %8 = getelementptr inbounds [4 x float], ptr %7, i64 0, i64 0
  %9 = load float, ptr %8, align 4, !tbaa !18
  %10 = load ptr, ptr %4, align 8, !tbaa !22
  %11 = getelementptr inbounds [4 x float], ptr %10, i64 0
  %12 = getelementptr inbounds [4 x float], ptr %11, i64 0, i64 0
  store float %9, ptr %12, align 4, !tbaa !18
  %13 = load ptr, ptr %3, align 8, !tbaa !22
  %14 = getelementptr inbounds [4 x float], ptr %13, i64 1
  %15 = getelementptr inbounds [4 x float], ptr %14, i64 0, i64 0
  %16 = load float, ptr %15, align 4, !tbaa !18
  %17 = load ptr, ptr %4, align 8, !tbaa !22
  %18 = getelementptr inbounds [4 x float], ptr %17, i64 0
  %19 = getelementptr inbounds [4 x float], ptr %18, i64 0, i64 1
  store float %16, ptr %19, align 4, !tbaa !18
  %20 = load ptr, ptr %3, align 8, !tbaa !22
  %21 = getelementptr inbounds [4 x float], ptr %20, i64 2
  %22 = getelementptr inbounds [4 x float], ptr %21, i64 0, i64 0
  %23 = load float, ptr %22, align 4, !tbaa !18
  %24 = load ptr, ptr %4, align 8, !tbaa !22
  %25 = getelementptr inbounds [4 x float], ptr %24, i64 0
  %26 = getelementptr inbounds [4 x float], ptr %25, i64 0, i64 2
  store float %23, ptr %26, align 4, !tbaa !18
  %27 = load ptr, ptr %4, align 8, !tbaa !22
  %28 = getelementptr inbounds [4 x float], ptr %27, i64 0
  %29 = getelementptr inbounds [4 x float], ptr %28, i64 0, i64 3
  store float 0.000000e+00, ptr %29, align 4, !tbaa !18
  %30 = load ptr, ptr %3, align 8, !tbaa !22
  %31 = getelementptr inbounds [4 x float], ptr %30, i64 0
  %32 = getelementptr inbounds [4 x float], ptr %31, i64 0, i64 1
  %33 = load float, ptr %32, align 4, !tbaa !18
  %34 = load ptr, ptr %4, align 8, !tbaa !22
  %35 = getelementptr inbounds [4 x float], ptr %34, i64 1
  %36 = getelementptr inbounds [4 x float], ptr %35, i64 0, i64 0
  store float %33, ptr %36, align 4, !tbaa !18
  %37 = load ptr, ptr %3, align 8, !tbaa !22
  %38 = getelementptr inbounds [4 x float], ptr %37, i64 1
  %39 = getelementptr inbounds [4 x float], ptr %38, i64 0, i64 1
  %40 = load float, ptr %39, align 4, !tbaa !18
  %41 = load ptr, ptr %4, align 8, !tbaa !22
  %42 = getelementptr inbounds [4 x float], ptr %41, i64 1
  %43 = getelementptr inbounds [4 x float], ptr %42, i64 0, i64 1
  store float %40, ptr %43, align 4, !tbaa !18
  %44 = load ptr, ptr %3, align 8, !tbaa !22
  %45 = getelementptr inbounds [4 x float], ptr %44, i64 2
  %46 = getelementptr inbounds [4 x float], ptr %45, i64 0, i64 1
  %47 = load float, ptr %46, align 4, !tbaa !18
  %48 = load ptr, ptr %4, align 8, !tbaa !22
  %49 = getelementptr inbounds [4 x float], ptr %48, i64 1
  %50 = getelementptr inbounds [4 x float], ptr %49, i64 0, i64 2
  store float %47, ptr %50, align 4, !tbaa !18
  %51 = load ptr, ptr %4, align 8, !tbaa !22
  %52 = getelementptr inbounds [4 x float], ptr %51, i64 1
  %53 = getelementptr inbounds [4 x float], ptr %52, i64 0, i64 3
  store float 0.000000e+00, ptr %53, align 4, !tbaa !18
  %54 = load ptr, ptr %3, align 8, !tbaa !22
  %55 = getelementptr inbounds [4 x float], ptr %54, i64 0
  %56 = getelementptr inbounds [4 x float], ptr %55, i64 0, i64 2
  %57 = load float, ptr %56, align 4, !tbaa !18
  %58 = load ptr, ptr %4, align 8, !tbaa !22
  %59 = getelementptr inbounds [4 x float], ptr %58, i64 2
  %60 = getelementptr inbounds [4 x float], ptr %59, i64 0, i64 0
  store float %57, ptr %60, align 4, !tbaa !18
  %61 = load ptr, ptr %3, align 8, !tbaa !22
  %62 = getelementptr inbounds [4 x float], ptr %61, i64 1
  %63 = getelementptr inbounds [4 x float], ptr %62, i64 0, i64 2
  %64 = load float, ptr %63, align 4, !tbaa !18
  %65 = load ptr, ptr %4, align 8, !tbaa !22
  %66 = getelementptr inbounds [4 x float], ptr %65, i64 2
  %67 = getelementptr inbounds [4 x float], ptr %66, i64 0, i64 1
  store float %64, ptr %67, align 4, !tbaa !18
  %68 = load ptr, ptr %3, align 8, !tbaa !22
  %69 = getelementptr inbounds [4 x float], ptr %68, i64 2
  %70 = getelementptr inbounds [4 x float], ptr %69, i64 0, i64 2
  %71 = load float, ptr %70, align 4, !tbaa !18
  %72 = load ptr, ptr %4, align 8, !tbaa !22
  %73 = getelementptr inbounds [4 x float], ptr %72, i64 2
  %74 = getelementptr inbounds [4 x float], ptr %73, i64 0, i64 2
  store float %71, ptr %74, align 4, !tbaa !18
  %75 = load ptr, ptr %4, align 8, !tbaa !22
  %76 = getelementptr inbounds [4 x float], ptr %75, i64 2
  %77 = getelementptr inbounds [4 x float], ptr %76, i64 0, i64 3
  store float 0.000000e+00, ptr %77, align 4, !tbaa !18
  call void @llvm.lifetime.start.p0(i64 8, ptr %5) #10
  store i64 0, ptr %5, align 8, !tbaa !24
  br label %78

78:                                               ; preds = %87, %2
  %79 = load i64, ptr %5, align 8, !tbaa !24
  %80 = icmp ult i64 %79, 4
  br i1 %80, label %82, label %81

81:                                               ; preds = %78
  call void @llvm.lifetime.end.p0(i64 8, ptr %5) #10
  br label %90

82:                                               ; preds = %78
  %83 = load ptr, ptr %4, align 8, !tbaa !22
  %84 = getelementptr inbounds [4 x float], ptr %83, i64 3
  %85 = load i64, ptr %5, align 8, !tbaa !24
  %86 = getelementptr inbounds nuw [4 x float], ptr %84, i64 0, i64 %85
  store float 0.000000e+00, ptr %86, align 4, !tbaa !18
  br label %87

87:                                               ; preds = %82
  %88 = load i64, ptr %5, align 8, !tbaa !24
  %89 = add i64 %88, 1
  store i64 %89, ptr %5, align 8, !tbaa !24
  br label %78

90:                                               ; preds = %81
  ret void
}

; Function Attrs: nounwind uwtable
define ptr @dt_ioppr_set_pipe_input_profile_info(ptr noundef %0, ptr noundef %1, i32 noundef %2, ptr noundef %3, i32 noundef %4, ptr noundef %5) #0 {
  %7 = alloca ptr, align 8
  %8 = alloca ptr, align 8
  %9 = alloca i32, align 4
  %10 = alloca ptr, align 8
  %11 = alloca i32, align 4
  %12 = alloca ptr, align 8
  %13 = alloca ptr, align 8
  store ptr %0, ptr %7, align 8, !tbaa !26
  store ptr %1, ptr %8, align 8, !tbaa !127
  store i32 %2, ptr %9, align 4, !tbaa !11
  store ptr %3, ptr %10, align 8, !tbaa !28
  store i32 %4, ptr %11, align 4, !tbaa !11
  store ptr %5, ptr %12, align 8, !tbaa !22
  call void @llvm.lifetime.start.p0(i64 8, ptr %13) #10
  %14 = load ptr, ptr %7, align 8, !tbaa !26
  %15 = load i32, ptr %9, align 4, !tbaa !11
  %16 = load ptr, ptr %10, align 8, !tbaa !28
  %17 = load i32, ptr %11, align 4, !tbaa !11
  %18 = call ptr @dt_ioppr_add_profile_info_to_list(ptr noundef %14, i32 noundef %15, ptr noundef %16, i32 noundef %17)
  store ptr %18, ptr %13, align 8, !tbaa !6
  %19 = load ptr, ptr %13, align 8, !tbaa !6
  %20 = icmp eq ptr %19, null
  br i1 %20, label %21, label %41

21:                                               ; preds = %6
  br label %22

22:                                               ; preds = %21
  %23 = load i32, ptr getelementptr inbounds nuw (%struct.darktable_t, ptr @darktable, i32 0, i32 2), align 8, !tbaa !103
  %24 = and i32 33554432, %23
  %25 = icmp ne i32 %24, 0
  br i1 %25, label %26, label %35

26:                                               ; preds = %22
  %27 = load i32, ptr getelementptr inbounds nuw (%struct.darktable_t, ptr @darktable, i32 0, i32 2), align 8, !tbaa !103
  %28 = xor i32 %27, -1
  %29 = and i32 0, %28
  %30 = icmp ne i32 %29, 0
  br i1 %30, label %35, label %31

31:                                               ; preds = %26
  %32 = load i32, ptr %9, align 4, !tbaa !11
  %33 = call ptr @dt_colorspaces_get_name(i32 noundef %32, ptr noundef null)
  %34 = load ptr, ptr %10, align 8, !tbaa !28
  call void (ptr, ...) @dt_print_ext(ptr noundef @.str.4, ptr noundef %33, ptr noundef %34)
  br label %35

35:                                               ; preds = %31, %26, %22
  br label %36

36:                                               ; preds = %35
  br label %37

37:                                               ; preds = %36
  %38 = load ptr, ptr %7, align 8, !tbaa !26
  %39 = load i32, ptr %11, align 4, !tbaa !11
  %40 = call ptr @dt_ioppr_add_profile_info_to_list(ptr noundef %38, i32 noundef 4, ptr noundef @.str.3, i32 noundef %39)
  store ptr %40, ptr %13, align 8, !tbaa !6
  br label %41

41:                                               ; preds = %37, %6
  %42 = load ptr, ptr %13, align 8, !tbaa !6
  %43 = getelementptr inbounds nuw %struct.dt_iop_order_iccprofile_info_t, ptr %42, i32 0, i32 0
  %44 = load i32, ptr %43, align 64, !tbaa !13
  %45 = icmp sge i32 %44, 9
  br i1 %45, label %46, label %75

46:                                               ; preds = %41
  %47 = load ptr, ptr %13, align 8, !tbaa !6
  %48 = getelementptr inbounds nuw %struct.dt_iop_order_iccprofile_info_t, ptr %47, i32 0, i32 0
  %49 = load i32, ptr %48, align 64, !tbaa !13
  %50 = icmp sle i32 %49, 14
  br i1 %50, label %51, label %75

51:                                               ; preds = %46
  %52 = load ptr, ptr %13, align 8, !tbaa !6
  %53 = getelementptr inbounds nuw %struct.dt_iop_order_iccprofile_info_t, ptr %52, i32 0, i32 4
  %54 = getelementptr inbounds [4 x [4 x float]], ptr %53, i64 0, i64 0
  %55 = load ptr, ptr %12, align 8, !tbaa !22
  call void @llvm.memcpy.p0.p0.i64(ptr align 64 %54, ptr align 4 %55, i64 64, i1 false)
  %56 = load ptr, ptr %13, align 8, !tbaa !6
  %57 = getelementptr inbounds nuw %struct.dt_iop_order_iccprofile_info_t, ptr %56, i32 0, i32 5
  %58 = getelementptr inbounds [4 x [4 x float]], ptr %57, i64 0, i64 0
  %59 = load ptr, ptr %13, align 8, !tbaa !6
  %60 = getelementptr inbounds nuw %struct.dt_iop_order_iccprofile_info_t, ptr %59, i32 0, i32 4
  %61 = getelementptr inbounds [4 x [4 x float]], ptr %60, i64 0, i64 0
  %62 = call i32 @mat3SSEinv(ptr noundef %58, ptr noundef %61)
  %63 = load ptr, ptr %13, align 8, !tbaa !6
  %64 = getelementptr inbounds nuw %struct.dt_iop_order_iccprofile_info_t, ptr %63, i32 0, i32 4
  %65 = getelementptr inbounds [4 x [4 x float]], ptr %64, i64 0, i64 0
  %66 = load ptr, ptr %13, align 8, !tbaa !6
  %67 = getelementptr inbounds nuw %struct.dt_iop_order_iccprofile_info_t, ptr %66, i32 0, i32 16
  %68 = getelementptr inbounds [4 x [4 x float]], ptr %67, i64 0, i64 0
  call void @transpose_3xSSE(ptr noundef %65, ptr noundef %68)
  %69 = load ptr, ptr %13, align 8, !tbaa !6
  %70 = getelementptr inbounds nuw %struct.dt_iop_order_iccprofile_info_t, ptr %69, i32 0, i32 5
  %71 = getelementptr inbounds [4 x [4 x float]], ptr %70, i64 0, i64 0
  %72 = load ptr, ptr %13, align 8, !tbaa !6
  %73 = getelementptr inbounds nuw %struct.dt_iop_order_iccprofile_info_t, ptr %72, i32 0, i32 17
  %74 = getelementptr inbounds [4 x [4 x float]], ptr %73, i64 0, i64 0
  call void @transpose_3xSSE(ptr noundef %71, ptr noundef %74)
  br label %75

75:                                               ; preds = %51, %46, %41
  %76 = load ptr, ptr %13, align 8, !tbaa !6
  %77 = load ptr, ptr %8, align 8, !tbaa !127
  %78 = getelementptr inbounds nuw %struct.dt_dev_pixelpipe_t, ptr %77, i32 0, i32 12
  store ptr %76, ptr %78, align 8, !tbaa !135
  %79 = load ptr, ptr %13, align 8, !tbaa !6
  call void @llvm.lifetime.end.p0(i64 8, ptr %13) #10
  ret ptr %79
}