; Function Attrs: nounwind uwtable
define noundef ptr @dt_ioppr_set_pipe_input_profile_info(ptr noundef captures(none) %0, ptr noundef writeonly captures(none) initializes((312, 320)) %1, i32 noundef %2, ptr noundef %3, i32 noundef %4, ptr noundef readonly captures(none) %5) local_unnamed_addr #0 {
  %7 = tail call ptr @dt_ioppr_add_profile_info_to_list(ptr noundef %0, i32 noundef %2, ptr noundef %3, i32 noundef %4)
  %8 = icmp eq ptr %7, null
  br i1 %8, label %9, label %16

9:                                                ; preds = %6
  %10 = load i32, ptr getelementptr inbounds nuw (i8, ptr @darktable, i64 8), align 8, !tbaa !64
  %11 = and i32 %10, 33554432
  %.not = icmp eq i32 %11, 0
  br i1 %.not, label %14, label %12

12:                                               ; preds = %9
  %13 = tail call ptr @dt_colorspaces_get_name(i32 noundef %2, ptr noundef null) #17
  tail call void (ptr, ...) @dt_print_ext(ptr noundef nonnull @.str.4, ptr noundef %13, ptr noundef %3) #17
  br label %14

14:                                               ; preds = %12, %9
  %15 = tail call ptr @dt_ioppr_add_profile_info_to_list(ptr noundef %0, i32 noundef 4, ptr noundef nonnull @.str.3, i32 noundef %4)
  br label %16

16:                                               ; preds = %14, %6
  %.0 = phi ptr [ %15, %14 ], [ %7, %6 ]
  %17 = load i32, ptr %.0, align 64, !tbaa !6
  %18 = add i32 %17, -9
  %or.cond = icmp ult i32 %18, 6
  br i1 %or.cond, label %19, label %81

19:                                               ; preds = %16
  %20 = getelementptr inbounds nuw i8, ptr %.0, i64 576
  tail call void @llvm.memcpy.p0.p0.i64(ptr noundef nonnull align 64 dereferenceable(64) %20, ptr noundef nonnull align 4 dereferenceable(64) %5, i64 64, i1 false)
  %21 = getelementptr inbounds nuw i8, ptr %.0, i64 640
  %22 = tail call i32 @mat3SSEinv(ptr noundef nonnull %21, ptr noundef nonnull %20) #17
  %23 = getelementptr inbounds nuw i8, ptr %.0, i64 896
  %24 = load float, ptr %20, align 4, !tbaa !14
  store float %24, ptr %23, align 4, !tbaa !14
  %25 = getelementptr inbounds nuw i8, ptr %.0, i64 592
  %26 = load float, ptr %25, align 4, !tbaa !14
  %27 = getelementptr inbounds nuw i8, ptr %.0, i64 900
  store float %26, ptr %27, align 4, !tbaa !14
  %28 = getelementptr inbounds nuw i8, ptr %.0, i64 608
  %29 = load float, ptr %28, align 4, !tbaa !14
  %30 = getelementptr inbounds nuw i8, ptr %.0, i64 904
  store float %29, ptr %30, align 4, !tbaa !14
  %31 = getelementptr inbounds nuw i8, ptr %.0, i64 908
  store float 0.000000e+00, ptr %31, align 4, !tbaa !14
  %32 = getelementptr inbounds nuw i8, ptr %.0, i64 580
  %33 = load float, ptr %32, align 4, !tbaa !14
  %34 = getelementptr inbounds nuw i8, ptr %.0, i64 912
  store float %33, ptr %34, align 4, !tbaa !14
  %35 = getelementptr inbounds nuw i8, ptr %.0, i64 596
  %36 = load float, ptr %35, align 4, !tbaa !14
  %37 = getelementptr inbounds nuw i8, ptr %.0, i64 916
  store float %36, ptr %37, align 4, !tbaa !14
  %38 = getelementptr inbounds nuw i8, ptr %.0, i64 612
  %39 = load float, ptr %38, align 4, !tbaa !14
  %40 = getelementptr inbounds nuw i8, ptr %.0, i64 920
  store float %39, ptr %40, align 4, !tbaa !14
  %41 = getelementptr inbounds nuw i8, ptr %.0, i64 924
  store float 0.000000e+00, ptr %41, align 4, !tbaa !14
  %42 = getelementptr inbounds nuw i8, ptr %.0, i64 584
  %43 = load float, ptr %42, align 4, !tbaa !14
  %44 = getelementptr inbounds nuw i8, ptr %.0, i64 928
  store float %43, ptr %44, align 4, !tbaa !14
  %45 = getelementptr inbounds nuw i8, ptr %.0, i64 600
  %46 = load float, ptr %45, align 4, !tbaa !14
  %47 = getelementptr inbounds nuw i8, ptr %.0, i64 932
  store float %46, ptr %47, align 4, !tbaa !14
  %48 = getelementptr inbounds nuw i8, ptr %.0, i64 616
  %49 = load float, ptr %48, align 4, !tbaa !14
  %50 = getelementptr inbounds nuw i8, ptr %.0, i64 936
  store float %49, ptr %50, align 4, !tbaa !14
  %51 = getelementptr inbounds nuw i8, ptr %.0, i64 940
  tail call void @llvm.memset.p0.i64(ptr noundef nonnull align 4 dereferenceable(20) %51, i8 0, i64 20, i1 false)
  %52 = getelementptr inbounds nuw i8, ptr %.0, i64 960
  %53 = load float, ptr %21, align 4, !tbaa !14
  store float %53, ptr %52, align 4, !tbaa !14
  %54 = getelementptr inbounds nuw i8, ptr %.0, i64 656
  %55 = load float, ptr %54, align 4, !tbaa !14
  %56 = getelementptr inbounds nuw i8, ptr %.0, i64 964
  store float %55, ptr %56, align 4, !tbaa !14
  %57 = getelementptr inbounds nuw i8, ptr %.0, i64 672
  %58 = load float, ptr %57, align 4, !tbaa !14
  %59 = getelementptr inbounds nuw i8, ptr %.0, i64 968
  store float %58, ptr %59, align 4, !tbaa !14
  %60 = getelementptr inbounds nuw i8, ptr %.0, i64 972
  store float 0.000000e+00, ptr %60, align 4, !tbaa !14
  %61 = getelementptr inbounds nuw i8, ptr %.0, i64 644
  %62 = load float, ptr %61, align 4, !tbaa !14
  %63 = getelementptr inbounds nuw i8, ptr %.0, i64 976
  store float %62, ptr %63, align 4, !tbaa !14
  %64 = getelementptr inbounds nuw i8, ptr %.0, i64 660
  %65 = load float, ptr %64, align 4, !tbaa !14
  %66 = getelementptr inbounds nuw i8, ptr %.0, i64 980
  store float %65, ptr %66, align 4, !tbaa !14
  %67 = getelementptr inbounds nuw i8, ptr %.0, i64 676
  %68 = load float, ptr %67, align 4, !tbaa !14
  %69 = getelementptr inbounds nuw i8, ptr %.0, i64 984
  store float %68, ptr %69, align 4, !tbaa !14
  %70 = getelementptr inbounds nuw i8, ptr %.0, i64 988
  store float 0.000000e+00, ptr %70, align 4, !tbaa !14
  %71 = getelementptr inbounds nuw i8, ptr %.0, i64 648
  %72 = load float, ptr %71, align 4, !tbaa !14
  %73 = getelementptr inbounds nuw i8, ptr %.0, i64 992
  store float %72, ptr %73, align 4, !tbaa !14
  %74 = getelementptr inbounds nuw i8, ptr %.0, i64 664
  %75 = load float, ptr %74, align 4, !tbaa !14
  %76 = getelementptr inbounds nuw i8, ptr %.0, i64 996
  store float %75, ptr %76, align 4, !tbaa !14
  %77 = getelementptr inbounds nuw i8, ptr %.0, i64 680
  %78 = load float, ptr %77, align 4, !tbaa !14
  %79 = getelementptr inbounds nuw i8, ptr %.0, i64 1000
  store float %78, ptr %79, align 4, !tbaa !14
  %80 = getelementptr inbounds nuw i8, ptr %.0, i64 1004
  tail call void @llvm.memset.p0.i64(ptr noundef nonnull align 4 dereferenceable(20) %80, i8 0, i64 20, i1 false)
  br label %81

81:                                               ; preds = %19, %16
  %82 = getelementptr inbounds nuw i8, ptr %1, i64 312
  store ptr %.0, ptr %82, align 8, !tbaa !122
  ret ptr %.0
}